target datalayout = "e-m:e-p270:32:32-p271:32:32-p272:64:64-i64:64-i128:128-f80:128-n8:16:32:64-S128"
target triple = "x86_64-pc-linux-gnu"

%struct.lv_subject_t = type { %struct.lv_ll_t, %union.lv_subject_value_t, %union.lv_subject_value_t, ptr, i32 }
%struct.lv_ll_t = type { i32, ptr, ptr }
%union.lv_subject_value_t = type { ptr }

; Function Attrs: inlinehint nounwind uwtable
define internal void @lv_memzero(ptr noundef %0, i64 noundef %1) #1 {
  %3 = alloca ptr, align 8
  %4 = alloca i64, align 8
  store ptr %0, ptr %3, align 8, !tbaa !3
  store i64 %1, ptr %4, align 8, !tbaa !10
  %5 = load ptr, ptr %3, align 8, !tbaa !3
  %6 = load i64, ptr %4, align 8, !tbaa !10
  call void @lv_memset(ptr noundef %5, i8 noundef zeroext 0, i64 noundef %6)
  ret void
}

; Function Attrs: nounwind uwtable
define void @lv_subject_init_pointer(ptr noundef %0, ptr noundef %1) #0 {
  %3 = alloca ptr, align 8
  %4 = alloca ptr, align 8
  store ptr %0, ptr %3, align 8, !tbaa !3
  store ptr %1, ptr %4, align 8, !tbaa !3
  %5 = load ptr, ptr %3, align 8, !tbaa !3
  call void @lv_memzero(ptr noundef %5, i64 noundef 56)
  %6 = load ptr, ptr %3, align 8, !tbaa !3
  %7 = getelementptr inbounds nuw %struct.lv_subject_t, ptr %6, i32 0, i32 4
  %8 = load i32, ptr %7, align 8
  %9 = and i32 %8, -16
  %10 = or i32 %9, 3
  store i32 %10, ptr %7, align 8
  %11 = load ptr, ptr %4, align 8, !tbaa !3
  %12 = load ptr, ptr %3, align 8, !tbaa !3
  %13 = getelementptr inbounds nuw %struct.lv_subject_t, ptr %12, i32 0, i32 1
  store ptr %11, ptr %13, align 8, !tbaa !9
  %14 = load ptr, ptr %4, align 8, !tbaa !3
  %15 = load ptr, ptr %3, align 8, !tbaa !3
  %16 = getelementptr inbounds nuw %struct.lv_subject_t, ptr %15, i32 0, i32 2
  store ptr %14, ptr %16, align 8, !tbaa !9
  %17 = load ptr, ptr %3, align 8, !tbaa !3
  %18 = getelementptr inbounds nuw %struct.lv_subject_t, ptr %17, i32 0, i32 0
  call void @lv_ll_init(ptr noundef %18, i32 noundef 40)
  ret void
}